target datalayout = "e-m:e-p270:32:32-p271:32:32-p272:64:64-i64:64-i128:128-f80:128-n8:16:32:64-S128"
target triple = "x86_64-pc-linux-gnu"

%struct.expert_field = type { i32, i32 }

@hf_ldp_tlv_sess_ver = internal global i32 0, align 4
@hf_ldp_tlv_sess_ka = internal global i32 0, align 4
@hf_ldp_tlv_sess_advbit = internal global i32 0, align 4
@hf_ldp_tlv_sess_ldetbit = internal global i32 0, align 4
@hf_ldp_tlv_sess_pvlim = internal global i32 0, align 4
@hf_ldp_tlv_sess_mxpdu = internal global i32 0, align 4
@hf_ldp_tlv_sess_rxlsr = internal global i32 0, align 4
@hf_ldp_tlv_sess_rxls = internal global i32 0, align 4
@ett_ldp_tlv_val = internal global i32 0, align 4
@ei_ldp_tlv_fec_len = internal global %struct.expert_field zeroinitializer, align 4
@.str.1049 = private unnamed_addr constant [75 x i8] c"Error processing Common Session Parameters TLV: length is %d, should be 14\00", align 1
@.str.1050 = private unnamed_addr constant [11 x i8] c"Parameters\00", align 1

; Function Attrs: null_pointer_is_valid sspstrong uwtable
define internal void @dissect_tlv_common_session_parms(ptr noundef %0, ptr noundef %1, i32 noundef %2, ptr noundef %3, i32 noundef %4) #0 {
  %6 = alloca ptr, align 8
  %7 = alloca ptr, align 8
  %8 = alloca i32, align 4
  %9 = alloca ptr, align 8
  %10 = alloca i32, align 4
  %11 = alloca ptr, align 8
  %12 = alloca i32, align 4
  store ptr %0, ptr %6, align 8
  store ptr %1, ptr %7, align 8
  store i32 %2, ptr %8, align 4
  store ptr %3, ptr %9, align 8
  store i32 %4, ptr %10, align 4
  call void @llvm.lifetime.start.p0(i64 8, ptr %11) #7
  %13 = load i32, ptr %10, align 4
  %14 = icmp ne i32 %13, 14
  br i1 %14, label %15, label %23

15:                                               ; preds = %5
  %16 = load ptr, ptr %9, align 8
  %17 = load ptr, ptr %7, align 8
  %18 = load ptr, ptr %6, align 8
  %19 = load i32, ptr %8, align 4
  %20 = load i32, ptr %10, align 4
  %21 = load i32, ptr %10, align 4
  %22 = call ptr (ptr, ptr, ptr, ptr, i32, i32, ptr, ...) @proto_tree_add_expert_format(ptr noundef %16, ptr noundef %17, ptr noundef @ei_ldp_tlv_fec_len, ptr noundef %18, i32 noundef %19, i32 noundef %20, ptr noundef @.str.1049, i32 noundef %21)
  store i32 1, ptr %12, align 4
  br label %77

23:                                               ; preds = %5
  %24 = load ptr, ptr %9, align 8
  %25 = load ptr, ptr %6, align 8
  %26 = load i32, ptr %8, align 4
  %27 = load i32, ptr %10, align 4
  %28 = load i32, ptr @ett_ldp_tlv_val, align 4
  %29 = call ptr @proto_tree_add_subtree(ptr noundef %24, ptr noundef %25, i32 noundef %26, i32 noundef %27, i32 noundef %28, ptr noundef null, ptr noundef @.str.1050)
  store ptr %29, ptr %11, align 8
  %30 = load ptr, ptr %11, align 8
  %31 = load i32, ptr @hf_ldp_tlv_sess_ver, align 4
  %32 = load ptr, ptr %6, align 8
  %33 = load i32, ptr %8, align 4
  %34 = call ptr @proto_tree_add_item(ptr noundef %30, i32 noundef %31, ptr noundef %32, i32 noundef %33, i32 noundef 2, i32 noundef 0)
  %35 = load ptr, ptr %11, align 8
  %36 = load i32, ptr @hf_ldp_tlv_sess_ka, align 4
  %37 = load ptr, ptr %6, align 8
  %38 = load i32, ptr %8, align 4
  %39 = add i32 %38, 2
  %40 = call ptr @proto_tree_add_item(ptr noundef %35, i32 noundef %36, ptr noundef %37, i32 noundef %39, i32 noundef 2, i32 noundef 0)
  %41 = load ptr, ptr %11, align 8
  %42 = load i32, ptr @hf_ldp_tlv_sess_advbit, align 4
  %43 = load ptr, ptr %6, align 8
  %44 = load i32, ptr %8, align 4
  %45 = add i32 %44, 4
  %46 = call ptr @proto_tree_add_item(ptr noundef %41, i32 noundef %42, ptr noundef %43, i32 noundef %45, i32 noundef 1, i32 noundef 0)
  %47 = load ptr, ptr %11, align 8
  %48 = load i32, ptr @hf_ldp_tlv_sess_ldetbit, align 4
  %49 = load ptr, ptr %6, align 8
  %50 = load i32, ptr %8, align 4
  %51 = add i32 %50, 4
  %52 = call ptr @proto_tree_add_item(ptr noundef %47, i32 noundef %48, ptr noundef %49, i32 noundef %51, i32 noundef 1, i32 noundef 0)
  %53 = load ptr, ptr %11, align 8
  %54 = load i32, ptr @hf_ldp_tlv_sess_pvlim, align 4
  %55 = load ptr, ptr %6, align 8
  %56 = load i32, ptr %8, align 4
  %57 = add i32 %56, 5
  %58 = call ptr @proto_tree_add_item(ptr noundef %53, i32 noundef %54, ptr noundef %55, i32 noundef %57, i32 noundef 1, i32 noundef 0)
  %59 = load ptr, ptr %11, align 8
  %60 = load i32, ptr @hf_ldp_tlv_sess_mxpdu, align 4
  %61 = load ptr, ptr %6, align 8
  %62 = load i32, ptr %8, align 4
  %63 = add i32 %62, 6
  %64 = call ptr @proto_tree_add_item(ptr noundef %59, i32 noundef %60, ptr noundef %61, i32 noundef %63, i32 noundef 2, i32 noundef 0)
  %65 = load ptr, ptr %11, align 8
  %66 = load i32, ptr @hf_ldp_tlv_sess_rxlsr, align 4
  %67 = load ptr, ptr %6, align 8
  %68 = load i32, ptr %8, align 4
  %69 = add i32 %68, 8
  %70 = call ptr @proto_tree_add_item(ptr noundef %65, i32 noundef %66, ptr noundef %67, i32 noundef %69, i32 noundef 4, i32 noundef 0)
  %71 = load ptr, ptr %11, align 8
  %72 = load i32, ptr @hf_ldp_tlv_sess_rxls, align 4
  %73 = load ptr, ptr %6, align 8
  %74 = load i32, ptr %8, align 4
  %75 = add i32 %74, 12
  %76 = call ptr @proto_tree_add_item(ptr noundef %71, i32 noundef %72, ptr noundef %73, i32 noundef %75, i32 noundef 2, i32 noundef 0)
  store i32 0, ptr %12, align 4
  br label %77

77:                                               ; preds = %23, %15
  call void @llvm.lifetime.end.p0(i64 8, ptr %11) #7
  %78 = load i32, ptr %12, align 4
  switch i32 %78, label %80 [
    i32 0, label %79
    i32 1, label %79
  ]

79:                                               ; preds = %77, %77
  ret void

80:                                               ; preds = %77
  unreachable
}