; Function Attrs: null_pointer_is_valid sspstrong uwtable
define internal fastcc void @dissect_tlv_common_session_parms(ptr noundef %0, ptr noundef %1, i32 noundef %2, ptr noundef %3, i32 noundef range(i32 0, 2147483644) %4) unnamed_addr #0 {
  %.not = icmp eq i32 %4, 14
  br i1 %.not, label %8, label %6

6:                                                ; preds = %5
  %7 = tail call ptr (ptr, ptr, ptr, ptr, i32, i32, ptr, ...) @proto_tree_add_expert_format(ptr noundef %3, ptr noundef %1, ptr noundef nonnull @ei_ldp_tlv_fec_len, ptr noundef %0, i32 noundef %2, i32 noundef %4, ptr noundef nonnull @.str.1049, i32 noundef %4)
  br label %33

8:                                                ; preds = %5
  %9 = load i32, ptr @ett_ldp_tlv_val, align 4
  %10 = tail call ptr @proto_tree_add_subtree(ptr noundef %3, ptr noundef %0, i32 noundef %2, i32 noundef 14, i32 noundef %9, ptr noundef null, ptr noundef nonnull @.str.1050)
  %11 = load i32, ptr @hf_ldp_tlv_sess_ver, align 4
  %12 = tail call ptr @proto_tree_add_item(ptr noundef %10, i32 noundef %11, ptr noundef %0, i32 noundef %2, i32 noundef 2, i32 noundef 0)
  %13 = load i32, ptr @hf_ldp_tlv_sess_ka, align 4
  %14 = add i32 %2, 2
  %15 = tail call ptr @proto_tree_add_item(ptr noundef %10, i32 noundef %13, ptr noundef %0, i32 noundef %14, i32 noundef 2, i32 noundef 0)
  %16 = load i32, ptr @hf_ldp_tlv_sess_advbit, align 4
  %17 = add i32 %2, 4
  %18 = tail call ptr @proto_tree_add_item(ptr noundef %10, i32 noundef %16, ptr noundef %0, i32 noundef %17, i32 noundef 1, i32 noundef 0)
  %19 = load i32, ptr @hf_ldp_tlv_sess_ldetbit, align 4
  %20 = tail call ptr @proto_tree_add_item(ptr noundef %10, i32 noundef %19, ptr noundef %0, i32 noundef %17, i32 noundef 1, i32 noundef 0)
  %21 = load i32, ptr @hf_ldp_tlv_sess_pvlim, align 4
  %22 = add i32 %2, 5
  %23 = tail call ptr @proto_tree_add_item(ptr noundef %10, i32 noundef %21, ptr noundef %0, i32 noundef %22, i32 noundef 1, i32 noundef 0)
  %24 = load i32, ptr @hf_ldp_tlv_sess_mxpdu, align 4
  %25 = add i32 %2, 6
  %26 = tail call ptr @proto_tree_add_item(ptr noundef %10, i32 noundef %24, ptr noundef %0, i32 noundef %25, i32 noundef 2, i32 noundef 0)
  %27 = load i32, ptr @hf_ldp_tlv_sess_rxlsr, align 4
  %28 = add i32 %2, 8
  %29 = tail call ptr @proto_tree_add_item(ptr noundef %10, i32 noundef %27, ptr noundef %0, i32 noundef %28, i32 noundef 4, i32 noundef 0)
  %30 = load i32, ptr @hf_ldp_tlv_sess_rxls, align 4
  %31 = add i32 %2, 12
  %32 = tail call ptr @proto_tree_add_item(ptr noundef %10, i32 noundef %30, ptr noundef %0, i32 noundef %31, i32 noundef 2, i32 noundef 0)
  br label %33

33:                                               ; preds = %8, %6
  ret void
}